target datalayout = "e-m:e-p270:32:32-p271:32:32-p272:64:64-i64:64-i128:128-f80:128-n8:16:32:64-S128"
target triple = "x86_64-pc-linux-gnu"

%struct.cbs_st = type { ptr, i64 }
%struct.ssl_early_callback_ctx = type { ptr, ptr, i64, ptr, i64, ptr, i64, ptr, i64, ptr, i64 }

; Function Attrs: nounwind uwtable
define hidden i32 @SSL_early_callback_ctx_extension_get(ptr noundef %0, i16 noundef zeroext %1, ptr noundef %2, ptr noundef %3) #0 {
  %5 = alloca i32, align 4
  %6 = alloca ptr, align 8
  %7 = alloca i16, align 2
  %8 = alloca ptr, align 8
  %9 = alloca ptr, align 8
  %10 = alloca %struct.cbs_st, align 8
  %11 = alloca i16, align 2
  %12 = alloca %struct.cbs_st, align 8
  %13 = alloca i32, align 4
  store ptr %0, ptr %6, align 8, !tbaa !6
  store i16 %1, ptr %7, align 2, !tbaa !62
  store ptr %2, ptr %8, align 8, !tbaa !64
  store ptr %3, ptr %9, align 8, !tbaa !66
  call void @llvm.lifetime.start.p0(i64 16, ptr %10) #8
  %14 = load ptr, ptr %6, align 8, !tbaa !6
  %15 = getelementptr inbounds nuw %struct.ssl_early_callback_ctx, ptr %14, i32 0, i32 9
  %16 = load ptr, ptr %15, align 8, !tbaa !50
  %17 = load ptr, ptr %6, align 8, !tbaa !6
  %18 = getelementptr inbounds nuw %struct.ssl_early_callback_ctx, ptr %17, i32 0, i32 10
  %19 = load i64, ptr %18, align 8, !tbaa !51
  call void @CBS_init(ptr noundef %10, ptr noundef %16, i64 noundef %19)
  br label %20

20:                                               ; preds = %44, %4
  %21 = call i64 @CBS_len(ptr noundef %10)
  %22 = icmp ne i64 %21, 0
  br i1 %22, label %23, label %45

23:                                               ; preds = %20
  call void @llvm.lifetime.start.p0(i64 2, ptr %11) #8
  call void @llvm.lifetime.start.p0(i64 16, ptr %12) #8
  %24 = call i32 @CBS_get_u16(ptr noundef %10, ptr noundef %11)
  %25 = icmp ne i32 %24, 0
  br i1 %25, label %26, label %29

26:                                               ; preds = %23
  %27 = call i32 @CBS_get_u16_length_prefixed(ptr noundef %10, ptr noundef %12)
  %28 = icmp ne i32 %27, 0
  br i1 %28, label %30, label %29

29:                                               ; preds = %26, %23
  store i32 0, ptr %5, align 4
  store i32 1, ptr %13, align 4
  br label %42

30:                                               ; preds = %26
  %31 = load i16, ptr %11, align 2, !tbaa !62
  %32 = zext i16 %31 to i32
  %33 = load i16, ptr %7, align 2, !tbaa !62
  %34 = zext i16 %33 to i32
  %35 = icmp eq i32 %32, %34
  br i1 %35, label %36, label %41

36:                                               ; preds = %30
  %37 = call ptr @CBS_data(ptr noundef %12)
  %38 = load ptr, ptr %8, align 8, !tbaa !64
  store ptr %37, ptr %38, align 8, !tbaa !55
  %39 = call i64 @CBS_len(ptr noundef %12)
  %40 = load ptr, ptr %9, align 8, !tbaa !66
  store i64 %39, ptr %40, align 8, !tbaa !56
  store i32 1, ptr %5, align 4
  store i32 1, ptr %13, align 4
  br label %42

41:                                               ; preds = %30
  store i32 0, ptr %13, align 4
  br label %42

42:                                               ; preds = %41, %36, %29
  call void @llvm.lifetime.end.p0(i64 16, ptr %12) #8
  call void @llvm.lifetime.end.p0(i64 2, ptr %11) #8
  %43 = load i32, ptr %13, align 4
  switch i32 %43, label %46 [
    i32 0, label %44
  ]

44:                                               ; preds = %42
  br label %20, !llvm.loop !68

45:                                               ; preds = %20
  store i32 0, ptr %5, align 4
  store i32 1, ptr %13, align 4
  br label %46

46:                                               ; preds = %45, %42
  call void @llvm.lifetime.end.p0(i64 16, ptr %10) #8
  %47 = load i32, ptr %5, align 4
  ret i32 %47
}