; Function Attrs: nounwind uwtable
define hidden range(i32 0, 2) i32 @SSL_early_callback_ctx_extension_get(ptr noundef readonly captures(none) %0, i16 noundef zeroext %1, ptr noundef writeonly captures(none) %2, ptr noundef writeonly captures(none) %3) local_unnamed_addr #0 {
  %5 = alloca %struct.cbs_st, align 8
  %6 = alloca i16, align 2
  %7 = alloca %struct.cbs_st, align 8
  call void @llvm.lifetime.start.p0(i64 16, ptr nonnull %5) #21
  %8 = getelementptr inbounds nuw i8, ptr %0, i64 72
  %9 = load ptr, ptr %8, align 8, !tbaa !48
  %10 = getelementptr inbounds nuw i8, ptr %0, i64 80
  %11 = load i64, ptr %10, align 8, !tbaa !49
  call void @CBS_init(ptr noundef nonnull %5, ptr noundef %9, i64 noundef %11) #21
  %12 = call i64 @CBS_len(ptr noundef nonnull %5) #21
  %.not11 = icmp eq i64 %12, 0
  br i1 %.not11, label %.loopexit, label %.lr.ph

.lr.ph:                                           ; preds = %4, %22
  call void @llvm.lifetime.start.p0(i64 2, ptr nonnull %6) #21
  call void @llvm.lifetime.start.p0(i64 16, ptr nonnull %7) #21
  %13 = call i32 @CBS_get_u16(ptr noundef nonnull %5, ptr noundef nonnull %6) #21
  %.not7 = icmp eq i32 %13, 0
  br i1 %.not7, label %.thread, label %14

14:                                               ; preds = %.lr.ph
  %15 = call i32 @CBS_get_u16_length_prefixed(ptr noundef nonnull %5, ptr noundef nonnull %7) #21
  %.not8 = icmp eq i32 %15, 0
  br i1 %.not8, label %.thread, label %16

16:                                               ; preds = %14
  %17 = load i16, ptr %6, align 2, !tbaa !56
  %18 = icmp eq i16 %17, %1
  br i1 %18, label %19, label %22

19:                                               ; preds = %16
  %20 = call ptr @CBS_data(ptr noundef nonnull %7) #21
  store ptr %20, ptr %2, align 8, !tbaa !51
  %21 = call i64 @CBS_len(ptr noundef nonnull %7) #21
  store i64 %21, ptr %3, align 8, !tbaa !52
  br label %.thread

.thread:                                          ; preds = %14, %.lr.ph, %19
  %.1.ph = phi i32 [ 1, %19 ], [ 0, %.lr.ph ], [ 0, %14 ]
  call void @llvm.lifetime.end.p0(i64 16, ptr nonnull %7) #21
  call void @llvm.lifetime.end.p0(i64 2, ptr nonnull %6) #21
  br label %.loopexit

22:                                               ; preds = %16
  call void @llvm.lifetime.end.p0(i64 16, ptr nonnull %7) #21
  call void @llvm.lifetime.end.p0(i64 2, ptr nonnull %6) #21
  %23 = call i64 @CBS_len(ptr noundef nonnull %5) #21
  %.not = icmp eq i64 %23, 0
  br i1 %.not, label %.loopexit, label %.lr.ph, !llvm.loop !57

.loopexit:                                        ; preds = %22, %4, %.thread
  %.2 = phi i32 [ %.1.ph, %.thread ], [ 0, %4 ], [ 0, %22 ]
  call void @llvm.lifetime.end.p0(i64 16, ptr nonnull %5) #21
  ret i32 %.2
}